
hello_avr.elf:     file format elf32-avr

Sections:
Idx Name          Size      VMA       LMA       File off  Algn
  0 .data         00000012  00800100  0000069e  00000732  2**0
                  CONTENTS, ALLOC, LOAD, DATA
  1 .text         0000069e  00000000  00000000  00000094  2**1
                  CONTENTS, ALLOC, LOAD, READONLY, CODE
  2 .bss          00000004  00800112  00800112  00000744  2**0
                  ALLOC
  3 .comment      00000030  00000000  00000000  00000744  2**0
                  CONTENTS, READONLY
  4 .debug_aranges 00000110  00000000  00000000  00000774  2**0
                  CONTENTS, READONLY, DEBUGGING
  5 .debug_info   000014aa  00000000  00000000  00000884  2**0
                  CONTENTS, READONLY, DEBUGGING
  6 .debug_abbrev 000005cb  00000000  00000000  00001d2e  2**0
                  CONTENTS, READONLY, DEBUGGING
  7 .debug_line   000004ae  00000000  00000000  000022f9  2**0
                  CONTENTS, READONLY, DEBUGGING
  8 .debug_frame  00000230  00000000  00000000  000027a8  2**2
                  CONTENTS, READONLY, DEBUGGING
  9 .debug_str    00000461  00000000  00000000  000029d8  2**0
                  CONTENTS, READONLY, DEBUGGING
 10 .debug_loc    00000bbd  00000000  00000000  00002e39  2**0
                  CONTENTS, READONLY, DEBUGGING
 11 .debug_ranges 00000170  00000000  00000000  000039f6  2**0
                  CONTENTS, READONLY, DEBUGGING

Disassembly of section .text:

00000000 <__vectors>:
   0:	0c 94 58 01 	jmp	0x2b0	; 0x2b0 <__ctors_end>
   4:	0c 94 75 01 	jmp	0x2ea	; 0x2ea <__bad_interrupt>
   8:	0c 94 75 01 	jmp	0x2ea	; 0x2ea <__bad_interrupt>
   c:	0c 94 75 01 	jmp	0x2ea	; 0x2ea <__bad_interrupt>
  10:	0c 94 75 01 	jmp	0x2ea	; 0x2ea <__bad_interrupt>
  14:	0c 94 75 01 	jmp	0x2ea	; 0x2ea <__bad_interrupt>
  18:	0c 94 75 01 	jmp	0x2ea	; 0x2ea <__bad_interrupt>
  1c:	0c 94 75 01 	jmp	0x2ea	; 0x2ea <__bad_interrupt>
  20:	0c 94 75 01 	jmp	0x2ea	; 0x2ea <__bad_interrupt>
  24:	0c 94 75 01 	jmp	0x2ea	; 0x2ea <__bad_interrupt>
  28:	0c 94 75 01 	jmp	0x2ea	; 0x2ea <__bad_interrupt>
  2c:	0c 94 75 01 	jmp	0x2ea	; 0x2ea <__bad_interrupt>
  30:	0c 94 75 01 	jmp	0x2ea	; 0x2ea <__bad_interrupt>
  34:	0c 94 75 01 	jmp	0x2ea	; 0x2ea <__bad_interrupt>
  38:	0c 94 75 01 	jmp	0x2ea	; 0x2ea <__bad_interrupt>
  3c:	0c 94 75 01 	jmp	0x2ea	; 0x2ea <__bad_interrupt>
  40:	0c 94 75 01 	jmp	0x2ea	; 0x2ea <__bad_interrupt>
  44:	0c 94 75 01 	jmp	0x2ea	; 0x2ea <__bad_interrupt>
  48:	0c 94 75 01 	jmp	0x2ea	; 0x2ea <__bad_interrupt>
  4c:	0c 94 75 01 	jmp	0x2ea	; 0x2ea <__bad_interrupt>
  50:	0c 94 75 01 	jmp	0x2ea	; 0x2ea <__bad_interrupt>
  54:	0c 94 75 01 	jmp	0x2ea	; 0x2ea <__bad_interrupt>
  58:	0c 94 75 01 	jmp	0x2ea	; 0x2ea <__bad_interrupt>
  5c:	0c 94 75 01 	jmp	0x2ea	; 0x2ea <__bad_interrupt>
  60:	0c 94 75 01 	jmp	0x2ea	; 0x2ea <__bad_interrupt>
  64:	0c 94 75 01 	jmp	0x2ea	; 0x2ea <__bad_interrupt>
  68:	0c 94 75 01 	jmp	0x2ea	; 0x2ea <__bad_interrupt>
  6c:	0c 94 75 01 	jmp	0x2ea	; 0x2ea <__bad_interrupt>

00000070 <Menu_3>:
  70:	0f 04 c6 00 8a 00 c6 00 c6 00 77 01 00 00 49 20     ..........w...I 
  80:	61 6d 20 54 68 69 72 64 0a 00                       am Third..

0000008a <Menu_2>:
  8a:	0a 03 70 00 a5 00 c6 00 c6 00 77 01 00 00 49 20     ..p.......w...I 
  9a:	61 6d 20 53 65 63 6f 6e 64 0a 00                    am Second..

000000a5 <Menu_1>:
  a5:	05 02 8a 00 c6 00 c6 00 c6 00 77 01 00 00 49 20     ..........w...I 
  b5:	6c 6f 76 65 20 5a 68 61 6e 67 20 59 75 6e 21 0a     love Zhang Yun!.
	...

000000c6 <NULL_MENU>:
	...

000000d4 <font>:
  d4:	00 00 00 00 00 00 00 5e 00 00 00 0e 00 0e 00 28     .......^.......(
  e4:	7c 28 7c 28 08 54 7c 54 20 26 10 08 64 00 28 54     |(|(.T|T &..d.(T
  f4:	28 40 00 00 00 0e 00 00 00 3c 42 00 00 00 42 3c     (@.......<B...B<
 104:	00 00 00 54 38 54 00 10 10 7c 10 10 00 80 60 20     ...T8T...|....` 
 114:	00 10 10 10 10 00 00 60 60 00 00 20 10 08 04 00     .......``.. ....
 124:	00 3c 42 3c 00 00 44 7e 40 00 44 62 52 4c 00 22     .<B<..D~@.DbRL."
 134:	4a 4a 36 00 18 14 7e 10 00 2e 4a 4a 32 00 3c 4a     JJ6...~...JJ2.<J
 144:	4a 30 00 02 62 1a 06 00 34 4a 4a 34 00 0c 52 52     J0..b...4JJ4..RR
 154:	3c 00 00 6c 6c 00 00 80 6c 2c 00 00 00 10 28 44     <..ll...l,....(D
 164:	00 28 28 28 28 00 00 44 28 10 00 00 04 52 0c 00     .((((..D(....R..
 174:	3c 42 5a 1c 00 7c 12 12 7c 00 7e 4a 4a 34 00 3c     <BZ..|..|.~JJ4.<
 184:	42 42 24 00 7e 42 42 3c 00 7e 4a 4a 42 00 7e 0a     BB$.~BB<.~JJB.~.
 194:	0a 02 00 3c 42 52 74 00 7e 08 08 7e 00 00 42 7e     ...<BRt.~..~..B~
 1a4:	42 00 20 40 40 3e 00 7e 18 24 42 00 7e 40 40 40     B. @@>.~.$B.~@@@
 1b4:	00 7e 0c 0c 7e 00 7e 0c 30 7e 00 3c 42 42 3c 00     .~..~.~.0~.<BB<.
 1c4:	7e 12 12 0c 00 3c 62 42 bc 00 7e 12 32 4c 00 24     ~....<bB..~.2L.$
 1d4:	4a 52 24 00 00 02 7e 02 00 3e 40 40 3e 00 1e 60     JR$...~..>@@>..`
 1e4:	60 1e 00 7e 30 30 7e 00 66 18 18 66 00 00 0e 70     `..~00~.f..f...p
 1f4:	0e 00 62 52 4a 46 00 00 7e 42 42 00 04 08 10 20     ..bRJF..~BB.... 
 204:	00 00 42 42 7e 00 00 04 02 04 00 40 40 40 40 00     ..BB~......@@@@.
 214:	00 02 04 00 00 30 48 28 78 00 7e 48 48 30 00 30     .....0H(x.~HH0.0
 224:	48 48 00 00 30 48 48 7e 00 30 68 58 10 00 10 7c     HH..0HH~.0hX...|
 234:	12 04 00 50 a8 a8 98 00 7e 08 08 70 00 00 48 7a     ...P....~..p..Hz
 244:	40 00 00 40 80 7a 00 7e 10 28 40 00 00 42 7e 40     @..@.z.~.(@..B~@
 254:	00 78 10 18 70 00 78 08 08 70 00 30 48 48 30 00     .x..p.x..p.0HH0.
 264:	f8 48 48 30 00 30 48 48 f8 00 78 08 08 10 00 50     .HH0.0HH..x....P
 274:	58 68 28 00 08 3e 48 40 00 38 40 40 78 00 00 38     Xh(..>H@.8@@x..8
 284:	40 38 00 78 60 60 78 00 48 30 30 48 00 18 a0 40     @8.x``x.H00H...@
 294:	38 00 48 68 58 48 00 00 08 3c 42 00 00 00 7e 00     8.HhXH...<B...~.
 2a4:	00 00 42 3c 08 00 04 02 04 02 00 00                 ..B<........

000002b0 <__ctors_end>:
 2b0:	11 24       	eor	r1, r1
 2b2:	1f be       	out	0x3f, r1	; 63
 2b4:	cf ef       	ldi	r28, 0xFF	; 255
 2b6:	d4 e0       	ldi	r29, 0x04	; 4
 2b8:	de bf       	out	0x3e, r29	; 62
 2ba:	cd bf       	out	0x3d, r28	; 61

000002bc <__do_copy_data>:
 2bc:	11 e0       	ldi	r17, 0x01	; 1
 2be:	a0 e0       	ldi	r26, 0x00	; 0
 2c0:	b1 e0       	ldi	r27, 0x01	; 1
 2c2:	ee e9       	ldi	r30, 0x9E	; 158
 2c4:	f6 e0       	ldi	r31, 0x06	; 6
 2c6:	02 c0       	rjmp	.+4      	; 0x2cc <__do_copy_data+0x10>
 2c8:	05 90       	lpm	r0, Z+
 2ca:	0d 92       	st	X+, r0
 2cc:	a2 31       	cpi	r26, 0x12	; 18
 2ce:	b1 07       	cpc	r27, r17
 2d0:	d9 f7       	brne	.-10     	; 0x2c8 <__do_copy_data+0xc>

000002d2 <__do_clear_bss>:
 2d2:	21 e0       	ldi	r18, 0x01	; 1
 2d4:	a2 e1       	ldi	r26, 0x12	; 18
 2d6:	b1 e0       	ldi	r27, 0x01	; 1
 2d8:	01 c0       	rjmp	.+2      	; 0x2dc <.do_clear_bss_start>

000002da <.do_clear_bss_loop>:
 2da:	1d 92       	st	X+, r1

000002dc <.do_clear_bss_start>:
 2dc:	a6 31       	cpi	r26, 0x16	; 22
 2de:	b2 07       	cpc	r27, r18
 2e0:	e1 f7       	brne	.-8      	; 0x2da <.do_clear_bss_loop>
 2e2:	0e 94 8d 01 	call	0x31a	; 0x31a <main>
 2e6:	0c 94 4d 03 	jmp	0x69a	; 0x69a <_exit>

000002ea <__bad_interrupt>:
 2ea:	0c 94 00 00 	jmp	0	; 0x0 <__vectors>

000002ee <generic_SelectCallback>:
/** Example menu item specific select callback function, run when the associated menu item is selected. */
static void Level1Item1_Select(void)
{
	oled_putstr_inverse("\nSELECTjkjlj");
}
void generic_SelectCallback(uint8_t x, uint8_t y, const char* str){
 2ee:	cf 93       	push	r28
 2f0:	df 93       	push	r29
 2f2:	ea 01       	movw	r28, r20
	oled_goto_xy(x,y);
 2f4:	0e 94 63 02 	call	0x4c6	; 0x4c6 <oled_goto_xy>
	oled_putstr_P_inverse(str);
 2f8:	ce 01       	movw	r24, r28
 2fa:	0e 94 3c 03 	call	0x678	; 0x678 <oled_putstr_P_inverse>
}
 2fe:	df 91       	pop	r29
 300:	cf 91       	pop	r28
 302:	08 95       	ret

00000304 <genric_draw_fun>:
/** Example menu item specific enter callback function, run when the associated menu item is entered. */
static void Level1Item1_Enter(void)
{
	puts("ENTER");
}
static void genric_draw_fun(uint8_t x, uint8_t y, const char *str){
 304:	cf 93       	push	r28
 306:	df 93       	push	r29
 308:	ea 01       	movw	r28, r20
	oled_goto_xy(x,y);
 30a:	0e 94 63 02 	call	0x4c6	; 0x4c6 <oled_goto_xy>
	oled_putstr_P(str);
 30e:	ce 01       	movw	r24, r28
 310:	0e 94 b6 02 	call	0x56c	; 0x56c <oled_putstr_P>
}
 314:	df 91       	pop	r29
 316:	cf 91       	pop	r28
 318:	08 95       	ret

0000031a <main>:
//MENU_ITEM(Menu_1_1, Menu_1_2, Menu_1_2, NULL_MENU, NULL_MENU, NULL, NULL, "1.1");
//MENU_ITEM(Menu_1_2, Menu_1_1, Menu_1_1, NULL_MENU, NULL_MENU, NULL, NULL, "1.2");

int main(void)
{	/* Set up the default menu text write callback, and navigate to an absolute menu item entry. */
		oled_init();
 31a:	0e 94 30 02 	call	0x460	; 0x460 <oled_init>
		oled_clear();
 31e:	0e 94 c7 02 	call	0x58e	; 0x58e <oled_clear>
		oled_putstr_inverse("hello world!!\n");
 322:	82 e0       	ldi	r24, 0x02	; 2
 324:	91 e0       	ldi	r25, 0x01	; 1
 326:	0e 94 2d 03 	call	0x65a	; 0x65a <oled_putstr_inverse>
	Menu_SetGenericWriteCallback(genric_draw_fun);
 32a:	82 e8       	ldi	r24, 0x82	; 130
 32c:	91 e0       	ldi	r25, 0x01	; 1
 32e:	0e 94 bd 01 	call	0x37a	; 0x37a <Menu_SetGenericWriteCallback>
	
	Menu_Navigate(&Menu_1);
 332:	85 ea       	ldi	r24, 0xA5	; 165
 334:	90 e0       	ldi	r25, 0x00	; 0
 336:	0e 94 a0 01 	call	0x340	; 0x340 <Menu_Navigate>
	Menu_DrawBase();
 33a:	0e 94 c8 01 	call	0x390	; 0x390 <Menu_DrawBase>
 33e:	ff cf       	rjmp	.-2      	; 0x33e <main+0x24>

00000340 <Menu_Navigate>:
	return CurrentMenuItem;
}

void Menu_Navigate(Menu_Item_t* const NewMenu)
{
	if ((NewMenu == &NULL_MENU) || (NewMenu == NULL))
 340:	20 e0       	ldi	r18, 0x00	; 0
 342:	86 3c       	cpi	r24, 0xC6	; 198
 344:	92 07       	cpc	r25, r18
 346:	c1 f0       	breq	.+48     	; 0x378 <Menu_Navigate+0x38>
 348:	00 97       	sbiw	r24, 0x00	; 0
 34a:	b1 f0       	breq	.+44     	; 0x378 <Menu_Navigate+0x38>
		return;

	CurrentMenuItem = NewMenu;
 34c:	90 93 01 01 	sts	0x0101, r25
 350:	80 93 00 01 	sts	0x0100, r24
/*
	if (MenuWriteFunc)
		MenuWriteFunc(pgm_read_byte(&(CurrentMenuItem->pos_x)),pgm_read_byte(&(CurrentMenuItem->pos_y)),CurrentMenuItem->Text);
*/

	void (*SelectCallback)(uint8_t x, uint8_t y, const char* Text) = MENU_ITEM_READ_POINTER(&CurrentMenuItem->SelectCallback);
 354:	fc 01       	movw	r30, r24
 356:	3a 96       	adiw	r30, 0x0a	; 10
 358:	25 91       	lpm	r18, Z+
 35a:	34 91       	lpm	r19, Z

	if (SelectCallback)
 35c:	21 15       	cp	r18, r1
 35e:	31 05       	cpc	r19, r1
 360:	59 f0       	breq	.+22     	; 0x378 <Menu_Navigate+0x38>
		SelectCallback(pgm_read_byte(&(CurrentMenuItem->pos_x)),pgm_read_byte(&(CurrentMenuItem->pos_y)),CurrentMenuItem->Text);
 362:	fc 01       	movw	r30, r24
 364:	31 96       	adiw	r30, 0x01	; 1
 366:	64 91       	lpm	r22, Z
 368:	fc 01       	movw	r30, r24
 36a:	74 91       	lpm	r23, Z
 36c:	ac 01       	movw	r20, r24
 36e:	42 5f       	subi	r20, 0xF2	; 242
 370:	5f 4f       	sbci	r21, 0xFF	; 255
 372:	87 2f       	mov	r24, r23
 374:	f9 01       	movw	r30, r18
 376:	09 95       	icall
 378:	08 95       	ret

0000037a <Menu_SetGenericWriteCallback>:
}

void Menu_SetGenericWriteCallback(void (*WriteFunc)(uint8_t x, uint8_t y, const char* Text))
{
	MenuWriteFunc = WriteFunc;
 37a:	90 93 13 01 	sts	0x0113, r25
 37e:	80 93 12 01 	sts	0x0112, r24
	Menu_Navigate(CurrentMenuItem);
 382:	80 91 00 01 	lds	r24, 0x0100
 386:	90 91 01 01 	lds	r25, 0x0101
 38a:	0e 94 a0 01 	call	0x340	; 0x340 <Menu_Navigate>
 38e:	08 95       	ret

00000390 <Menu_DrawBase>:
}

/************************************************************************/
/* draw the base of the whole menu, all same level items of new         */
/************************************************************************/
void Menu_DrawBase(void){
 390:	cf 93       	push	r28
 392:	df 93       	push	r29
static Menu_Item_t* CurrentMenuItem = &NULL_MENU;


Menu_Item_t* Menu_GetCurrentMenu(void)
{
	return CurrentMenuItem;
 394:	c0 91 00 01 	lds	r28, 0x0100
 398:	d0 91 01 01 	lds	r29, 0x0101
/************************************************************************/
/* draw the base of the whole menu, all same level items of new         */
/************************************************************************/
void Menu_DrawBase(void){
	Menu_Item_t * ptr = Menu_GetCurrentMenu();// payattention here you need some thing
	if ((ptr == &NULL_MENU) || (ptr == NULL))
 39c:	20 e0       	ldi	r18, 0x00	; 0
 39e:	c6 3c       	cpi	r28, 0xC6	; 198
 3a0:	d2 07       	cpc	r29, r18
 3a2:	09 f4       	brne	.+2      	; 0x3a6 <Menu_DrawBase+0x16>
 3a4:	5a c0       	rjmp	.+180    	; 0x45a <Menu_DrawBase+0xca>
 3a6:	20 97       	sbiw	r28, 0x00	; 0
 3a8:	09 f4       	brne	.+2      	; 0x3ac <Menu_DrawBase+0x1c>
 3aa:	57 c0       	rjmp	.+174    	; 0x45a <Menu_DrawBase+0xca>
	return;
	// get the first item of the same level
	while (
		(MENU_ITEM_READ_POINTER(&ptr->Previous) != &NULL_MENU)
 3ac:	ce 01       	movw	r24, r28
 3ae:	04 96       	adiw	r24, 0x04	; 4
 3b0:	fc 01       	movw	r30, r24
 3b2:	25 91       	lpm	r18, Z+
 3b4:	34 91       	lpm	r19, Z
void Menu_DrawBase(void){
	Menu_Item_t * ptr = Menu_GetCurrentMenu();// payattention here you need some thing
	if ((ptr == &NULL_MENU) || (ptr == NULL))
	return;
	// get the first item of the same level
	while (
 3b6:	26 5c       	subi	r18, 0xC6	; 198
 3b8:	30 40       	sbci	r19, 0x00	; 0
 3ba:	a9 f0       	breq	.+42     	; 0x3e6 <Menu_DrawBase+0x56>
		(MENU_ITEM_READ_POINTER(&ptr->Previous) != &NULL_MENU)
		 && (MENU_ITEM_READ_POINTER(&ptr->Previous) != NULL)
 3bc:	fc 01       	movw	r30, r24
 3be:	25 91       	lpm	r18, Z+
 3c0:	34 91       	lpm	r19, Z
 3c2:	23 2b       	or	r18, r19
 3c4:	81 f0       	breq	.+32     	; 0x3e6 <Menu_DrawBase+0x56>
		 )
		ptr = MENU_ITEM_READ_POINTER(&ptr->Previous);
 3c6:	fc 01       	movw	r30, r24
 3c8:	85 91       	lpm	r24, Z+
 3ca:	94 91       	lpm	r25, Z
 3cc:	ec 01       	movw	r28, r24
	Menu_Item_t * ptr = Menu_GetCurrentMenu();// payattention here you need some thing
	if ((ptr == &NULL_MENU) || (ptr == NULL))
	return;
	// get the first item of the same level
	while (
		(MENU_ITEM_READ_POINTER(&ptr->Previous) != &NULL_MENU)
 3ce:	04 96       	adiw	r24, 0x04	; 4
 3d0:	fc 01       	movw	r30, r24
 3d2:	25 91       	lpm	r18, Z+
 3d4:	34 91       	lpm	r19, Z
void Menu_DrawBase(void){
	Menu_Item_t * ptr = Menu_GetCurrentMenu();// payattention here you need some thing
	if ((ptr == &NULL_MENU) || (ptr == NULL))
	return;
	// get the first item of the same level
	while (
 3d6:	26 5c       	subi	r18, 0xC6	; 198
 3d8:	30 40       	sbci	r19, 0x00	; 0
 3da:	29 f0       	breq	.+10     	; 0x3e6 <Menu_DrawBase+0x56>
		(MENU_ITEM_READ_POINTER(&ptr->Previous) != &NULL_MENU)
		 && (MENU_ITEM_READ_POINTER(&ptr->Previous) != NULL)
 3dc:	fc 01       	movw	r30, r24
 3de:	25 91       	lpm	r18, Z+
 3e0:	34 91       	lpm	r19, Z
 3e2:	23 2b       	or	r18, r19
 3e4:	81 f7       	brne	.-32     	; 0x3c6 <Menu_DrawBase+0x36>
		 )
		ptr = MENU_ITEM_READ_POINTER(&ptr->Previous);
		
	// get the first item of the same level
	if (MenuWriteFunc){
 3e6:	20 91 12 01 	lds	r18, 0x0112
 3ea:	30 91 13 01 	lds	r19, 0x0113
 3ee:	21 15       	cp	r18, r1
 3f0:	31 05       	cpc	r19, r1
 3f2:	09 f4       	brne	.+2      	; 0x3f6 <Menu_DrawBase+0x66>
 3f4:	32 c0       	rjmp	.+100    	; 0x45a <Menu_DrawBase+0xca>
		MenuWriteFunc(pgm_read_byte(&(ptr->pos_x)),pgm_read_byte(&(ptr->pos_y)),ptr->Text);
 3f6:	fe 01       	movw	r30, r28
 3f8:	31 96       	adiw	r30, 0x01	; 1
 3fa:	64 91       	lpm	r22, Z
 3fc:	fe 01       	movw	r30, r28
 3fe:	84 91       	lpm	r24, Z
 400:	ae 01       	movw	r20, r28
 402:	42 5f       	subi	r20, 0xF2	; 242
 404:	5f 4f       	sbci	r21, 0xFF	; 255
 406:	f9 01       	movw	r30, r18
 408:	09 95       	icall
		while (( MENU_ITEM_READ_POINTER(&ptr->Next) != &NULL_MENU) && ( MENU_ITEM_READ_POINTER(&ptr->Next) != NULL)) {
 40a:	22 96       	adiw	r28, 0x02	; 2
 40c:	fe 01       	movw	r30, r28
 40e:	85 91       	lpm	r24, Z+
 410:	94 91       	lpm	r25, Z
 412:	86 5c       	subi	r24, 0xC6	; 198
 414:	90 40       	sbci	r25, 0x00	; 0
 416:	09 f1       	breq	.+66     	; 0x45a <Menu_DrawBase+0xca>
 418:	fe 01       	movw	r30, r28
 41a:	85 91       	lpm	r24, Z+
 41c:	94 91       	lpm	r25, Z
 41e:	89 2b       	or	r24, r25
 420:	e1 f0       	breq	.+56     	; 0x45a <Menu_DrawBase+0xca>
			ptr = MENU_ITEM_READ_POINTER(&ptr->Next);
 422:	fe 01       	movw	r30, r28
 424:	c5 91       	lpm	r28, Z+
 426:	d4 91       	lpm	r29, Z
			MenuWriteFunc(pgm_read_byte(&(ptr->pos_x)),pgm_read_byte(&(ptr->pos_y)),ptr->Text);
 428:	fe 01       	movw	r30, r28
 42a:	31 96       	adiw	r30, 0x01	; 1
 42c:	64 91       	lpm	r22, Z
 42e:	fe 01       	movw	r30, r28
 430:	84 91       	lpm	r24, Z
 432:	ae 01       	movw	r20, r28
 434:	42 5f       	subi	r20, 0xF2	; 242
 436:	5f 4f       	sbci	r21, 0xFF	; 255
 438:	e0 91 12 01 	lds	r30, 0x0112
 43c:	f0 91 13 01 	lds	r31, 0x0113
 440:	09 95       	icall
		ptr = MENU_ITEM_READ_POINTER(&ptr->Previous);
		
	// get the first item of the same level
	if (MenuWriteFunc){
		MenuWriteFunc(pgm_read_byte(&(ptr->pos_x)),pgm_read_byte(&(ptr->pos_y)),ptr->Text);
		while (( MENU_ITEM_READ_POINTER(&ptr->Next) != &NULL_MENU) && ( MENU_ITEM_READ_POINTER(&ptr->Next) != NULL)) {
 442:	22 96       	adiw	r28, 0x02	; 2
 444:	fe 01       	movw	r30, r28
 446:	85 91       	lpm	r24, Z+
 448:	94 91       	lpm	r25, Z
 44a:	86 5c       	subi	r24, 0xC6	; 198
 44c:	90 40       	sbci	r25, 0x00	; 0
 44e:	29 f0       	breq	.+10     	; 0x45a <Menu_DrawBase+0xca>
 450:	fe 01       	movw	r30, r28
 452:	85 91       	lpm	r24, Z+
 454:	94 91       	lpm	r25, Z
 456:	89 2b       	or	r24, r25
 458:	21 f7       	brne	.-56     	; 0x422 <Menu_DrawBase+0x92>
			ptr = MENU_ITEM_READ_POINTER(&ptr->Next);
			MenuWriteFunc(pgm_read_byte(&(ptr->pos_x)),pgm_read_byte(&(ptr->pos_y)),ptr->Text);
		}
	}
 45a:	df 91       	pop	r29
 45c:	cf 91       	pop	r28
 45e:	08 95       	ret

00000460 <oled_init>:
}

 
 void oled_init(void)
 {
 	MCUCR |= (1<<SRE);        //Enable External Memory interface
 460:	85 b7       	in	r24, 0x35	; 53
 462:	80 68       	ori	r24, 0x80	; 128
 464:	85 bf       	out	0x35, r24	; 53
 	SFIOR |= (1<<XMM2);       //Mask out higher 4 bits of address
 466:	80 b7       	in	r24, 0x30	; 48
 468:	80 62       	ori	r24, 0x20	; 32
 46a:	80 bf       	out	0x30, r24	; 48
 	volatile uint8_t *addr= (uint8_t *) OLED_ADDR_CMD_START;		//selcet command mode
 	
 	//code copied from datasheet
 	*addr=0xae;				//turn display off
 46c:	ef e0       	ldi	r30, 0x0F	; 15
 46e:	f0 e1       	ldi	r31, 0x10	; 16
 470:	8e ea       	ldi	r24, 0xAE	; 174
 472:	80 83       	st	Z, r24
 	*addr=0xa1;			//column addr 127 is mapped to seg0
 474:	81 ea       	ldi	r24, 0xA1	; 161
 476:	80 83       	st	Z, r24
 	*addr=0xda;				//com pin configuration
 478:	8a ed       	ldi	r24, 0xDA	; 218
 47a:	80 83       	st	Z, r24
 	*addr=0x12;				//com pin config=alternative
 47c:	82 e1       	ldi	r24, 0x12	; 18
 47e:	80 83       	st	Z, r24
 	*addr=0xc8;				//o/p scan direction com63 to com0
 480:	88 ec       	ldi	r24, 0xC8	; 200
 482:	80 83       	st	Z, r24
 	*addr=0xa8;				//multiplex ratio config
 484:	88 ea       	ldi	r24, 0xA8	; 168
 486:	80 83       	st	Z, r24
 	*addr=0x3f;				//ratio=63
 488:	8f e3       	ldi	r24, 0x3F	; 63
 48a:	80 83       	st	Z, r24
 	*addr=0xd5;				//dclck ratio
 48c:	85 ed       	ldi	r24, 0xD5	; 213
 48e:	80 83       	st	Z, r24
 	*addr=0x80;				//divide ratio and oscl. frequency
 490:	80 e8       	ldi	r24, 0x80	; 128
 492:	80 83       	st	Z, r24
 	*addr=0x81;				//contrast control
 494:	81 e8       	ldi	r24, 0x81	; 129
 496:	80 83       	st	Z, r24
 	*addr=0x50;				//value of contrast is 50h
 498:	80 e5       	ldi	r24, 0x50	; 80
 49a:	80 83       	st	Z, r24
 	*addr=0xd9;				//set pre-charge period
 49c:	89 ed       	ldi	r24, 0xD9	; 217
 49e:	80 83       	st	Z, r24
 	*addr=0x21;				//value =21
 4a0:	81 e2       	ldi	r24, 0x21	; 33
 4a2:	80 83       	st	Z, r24
 	*addr=0x20;				//set memory addressing mode
 4a4:	80 e2       	ldi	r24, 0x20	; 32
 4a6:	80 83       	st	Z, r24
 	*addr=0x00;				//horz addressing mode
 4a8:	10 82       	st	Z, r1
 	*addr=0xdb;				//vcom de-select level mode
 4aa:	8b ed       	ldi	r24, 0xDB	; 219
 4ac:	80 83       	st	Z, r24
 	*addr=0x30;				//value=0.83vcc
 4ae:	80 e3       	ldi	r24, 0x30	; 48
 4b0:	80 83       	st	Z, r24
 	*addr=0xad;				//master configuration
 4b2:	8d ea       	ldi	r24, 0xAD	; 173
 4b4:	80 83       	st	Z, r24
 	*addr=0x00;				//select extrenal iref
 4b6:	10 82       	st	Z, r1
 	*addr=0xa4;				//out follows ram content
 4b8:	84 ea       	ldi	r24, 0xA4	; 164
 4ba:	80 83       	st	Z, r24
 	*addr=0xa6;				//set normal display
 4bc:	86 ea       	ldi	r24, 0xA6	; 166
 4be:	80 83       	st	Z, r24
 	*addr=0xaf;				//display on
 4c0:	8f ea       	ldi	r24, 0xAF	; 175
 4c2:	80 83       	st	Z, r24
 4c4:	08 95       	ret

000004c6 <oled_goto_xy>:



void oled_goto_xy(uint8_t col,uint8_t row){
	// input: 0 to max - min.
	current_col_address = col;
 4c6:	80 93 15 01 	sts	0x0115, r24
	current_pag_address = row;
 4ca:	60 93 14 01 	sts	0x0114, r22
void oled_wr_cmd(uint8_t cmd){
	// write cmd to oled!! very important to add volatile
	/*volatile char * const addr = OLED_ADDR_CMD_START;
	*addr = cmd;*/
	volatile uint8_t *  addr = (uint8_t *)OLED_ADDR_CMD_START;
	*addr = cmd;
 4ce:	ef e0       	ldi	r30, 0x0F	; 15
 4d0:	f0 e1       	ldi	r31, 0x10	; 16
 4d2:	91 e2       	ldi	r25, 0x21	; 33
 4d4:	90 83       	st	Z, r25
 4d6:	80 83       	st	Z, r24
 4d8:	8f e7       	ldi	r24, 0x7F	; 127
 4da:	80 83       	st	Z, r24
 4dc:	82 e2       	ldi	r24, 0x22	; 34
 4de:	80 83       	st	Z, r24
 4e0:	60 83       	st	Z, r22
 4e2:	86 e0       	ldi	r24, 0x06	; 6
 4e4:	80 83       	st	Z, r24
 4e6:	08 95       	ret

000004e8 <oled_goto_nextln>:
	oled_wr_cmd(END_PAGE);
}

void oled_goto_nextln(void){
	// input: 0 to max-min
	current_pag_address++;
 4e8:	80 91 14 01 	lds	r24, 0x0114
 4ec:	8f 5f       	subi	r24, 0xFF	; 255
 4ee:	80 93 14 01 	sts	0x0114, r24
	if(current_pag_address > END_PAGE - START_PAGE)
 4f2:	80 91 14 01 	lds	r24, 0x0114
 4f6:	87 30       	cpi	r24, 0x07	; 7
 4f8:	10 f0       	brcs	.+4      	; 0x4fe <oled_goto_nextln+0x16>
		current_pag_address = 0;
 4fa:	10 92 14 01 	sts	0x0114, r1
	oled_goto_xy(0, current_pag_address);
 4fe:	60 91 14 01 	lds	r22, 0x0114
 502:	80 e0       	ldi	r24, 0x00	; 0
 504:	0e 94 63 02 	call	0x4c6	; 0x4c6 <oled_goto_xy>
 508:	08 95       	ret

0000050a <oled_putchar>:
}
void oled_putchar( const char c){
 50a:	cf 93       	push	r28
	if(c == '\n'){
 50c:	8a 30       	cpi	r24, 0x0A	; 10
 50e:	19 f4       	brne	.+6      	; 0x516 <oled_putchar+0xc>
		oled_goto_nextln();
 510:	0e 94 74 02 	call	0x4e8	; 0x4e8 <oled_goto_nextln>
		return;
 514:	29 c0       	rjmp	.+82     	; 0x568 <oled_putchar+0x5e>
	}
	int i;
	const char j = (c-' ');
 516:	c0 ee       	ldi	r28, 0xE0	; 224
 518:	c8 0f       	add	r28, r24
	current_col_address+=CHA_WIDTH;
 51a:	80 91 15 01 	lds	r24, 0x0115
 51e:	8b 5f       	subi	r24, 0xFB	; 251
 520:	80 93 15 01 	sts	0x0115, r24

	if(current_col_address/CHA_WIDTH >= MAX_CHARS_A_LINE){
 524:	80 91 15 01 	lds	r24, 0x0115
 528:	8d 37       	cpi	r24, 0x7D	; 125
 52a:	70 f0       	brcs	.+28     	; 0x548 <oled_putchar+0x3e>
		//current_col_address = 0;
		oled_goto_nextln();
 52c:	0e 94 74 02 	call	0x4e8	; 0x4e8 <oled_goto_nextln>
 530:	0b c0       	rjmp	.+22     	; 0x548 <oled_putchar+0x3e>
 532:	fc 01       	movw	r30, r24
 534:	e2 0f       	add	r30, r18
 536:	f3 1f       	adc	r31, r19
	}


	for(i = 0; i < 5; i++){
		// pay attention, progmem read
		 oled_wr_d(pgm_read_byte(&font[(int)j][i]));
 538:	e4 91       	lpm	r30, Z
void oled_wr_d(uint8_t data){
	// write cmd to oled!! very important to add volatile
	/*volatile char * const addr = OLED_ADDR_DATA_START;
	*addr = data;*/
	volatile uint8_t * const addr = (uint8_t *)OLED_ADDR_DATA_START;
		*addr = data;
 53a:	ec 93       	st	X, r30
		//current_col_address = 0;
		oled_goto_nextln();
	}


	for(i = 0; i < 5; i++){
 53c:	2f 5f       	subi	r18, 0xFF	; 255
 53e:	3f 4f       	sbci	r19, 0xFF	; 255
 540:	25 30       	cpi	r18, 0x05	; 5
 542:	31 05       	cpc	r19, r1
 544:	b1 f7       	brne	.-20     	; 0x532 <oled_putchar+0x28>
 546:	10 c0       	rjmp	.+32     	; 0x568 <oled_putchar+0x5e>
 548:	8c 2f       	mov	r24, r28
 54a:	90 e0       	ldi	r25, 0x00	; 0
 54c:	9c 01       	movw	r18, r24
 54e:	22 0f       	add	r18, r18
 550:	33 1f       	adc	r19, r19
 552:	22 0f       	add	r18, r18
 554:	33 1f       	adc	r19, r19
 556:	82 0f       	add	r24, r18
 558:	93 1f       	adc	r25, r19
	current_pag_address++;
	if(current_pag_address > END_PAGE - START_PAGE)
		current_pag_address = 0;
	oled_goto_xy(0, current_pag_address);
}
void oled_putchar( const char c){
 55a:	20 e0       	ldi	r18, 0x00	; 0
 55c:	30 e0       	ldi	r19, 0x00	; 0
 55e:	8c 52       	subi	r24, 0x2C	; 44
 560:	9f 4f       	sbci	r25, 0xFF	; 255
void oled_wr_d(uint8_t data){
	// write cmd to oled!! very important to add volatile
	/*volatile char * const addr = OLED_ADDR_DATA_START;
	*addr = data;*/
	volatile uint8_t * const addr = (uint8_t *)OLED_ADDR_DATA_START;
		*addr = data;
 562:	af e0       	ldi	r26, 0x0F	; 15
 564:	b2 e1       	ldi	r27, 0x12	; 18
 566:	e5 cf       	rjmp	.-54     	; 0x532 <oled_putchar+0x28>

	for(i = 0; i < 5; i++){
		// pay attention, progmem read
		 oled_wr_d(pgm_read_byte(&font[(int)j][i]));
	}
}
 568:	cf 91       	pop	r28
 56a:	08 95       	ret

0000056c <oled_putstr_P>:
}
void oled_putstr_inverse( const char * str){
	while(*str)
		oled_putchar_inverse(*str++);
}
void oled_putstr_P( const char * str){
 56c:	cf 93       	push	r28
 56e:	df 93       	push	r29
 570:	ec 01       	movw	r28, r24
		char read = pgm_read_byte(str);
 572:	fc 01       	movw	r30, r24
 574:	84 91       	lpm	r24, Z
		// Display buffer on LCD.
		while(read){
 576:	88 23       	and	r24, r24
 578:	39 f0       	breq	.+14     	; 0x588 <oled_putstr_P+0x1c>
			oled_putchar(read);
 57a:	0e 94 85 02 	call	0x50a	; 0x50a <oled_putchar>
			str++;
 57e:	21 96       	adiw	r28, 0x01	; 1
			read = pgm_read_byte(str);
 580:	fe 01       	movw	r30, r28
 582:	84 91       	lpm	r24, Z
		oled_putchar_inverse(*str++);
}
void oled_putstr_P( const char * str){
		char read = pgm_read_byte(str);
		// Display buffer on LCD.
		while(read){
 584:	81 11       	cpse	r24, r1
 586:	f9 cf       	rjmp	.-14     	; 0x57a <oled_putstr_P+0xe>
			oled_putchar(read);
			str++;
			read = pgm_read_byte(str);
		}
		
}
 588:	df 91       	pop	r29
 58a:	cf 91       	pop	r28
 58c:	08 95       	ret

0000058e <oled_clear>:
		read = pgm_read_byte(str);
	}
	
}
void oled_clear(void){
	current_col_address = 0;
 58e:	10 92 15 01 	sts	0x0115, r1
	current_pag_address = 0;
 592:	10 92 14 01 	sts	0x0114, r1
void oled_wr_cmd(uint8_t cmd){
	// write cmd to oled!! very important to add volatile
	/*volatile char * const addr = OLED_ADDR_CMD_START;
	*addr = cmd;*/
	volatile uint8_t *  addr = (uint8_t *)OLED_ADDR_CMD_START;
	*addr = cmd;
 596:	ef e0       	ldi	r30, 0x0F	; 15
 598:	f0 e1       	ldi	r31, 0x10	; 16
 59a:	8e ea       	ldi	r24, 0xAE	; 174
 59c:	80 83       	st	Z, r24
 59e:	80 e2       	ldi	r24, 0x20	; 32
 5a0:	80 83       	st	Z, r24
 5a2:	10 82       	st	Z, r1
 5a4:	81 e2       	ldi	r24, 0x21	; 33
 5a6:	80 83       	st	Z, r24
 5a8:	10 82       	st	Z, r1
 5aa:	8f e7       	ldi	r24, 0x7F	; 127
 5ac:	80 83       	st	Z, r24
 5ae:	82 e2       	ldi	r24, 0x22	; 34
 5b0:	80 83       	st	Z, r24
 5b2:	10 82       	st	Z, r1
 5b4:	87 e0       	ldi	r24, 0x07	; 7
 5b6:	80 83       	st	Z, r24
 5b8:	80 e4       	ldi	r24, 0x40	; 64
 5ba:	80 83       	st	Z, r24
 5bc:	80 e0       	ldi	r24, 0x00	; 0
 5be:	94 e0       	ldi	r25, 0x04	; 4
void oled_wr_d(uint8_t data){
	// write cmd to oled!! very important to add volatile
	/*volatile char * const addr = OLED_ADDR_DATA_START;
	*addr = data;*/
	volatile uint8_t * const addr = (uint8_t *)OLED_ADDR_DATA_START;
		*addr = data;
 5c0:	ef e0       	ldi	r30, 0x0F	; 15
 5c2:	f2 e1       	ldi	r31, 0x12	; 18
 5c4:	10 82       	st	Z, r1
 5c6:	01 97       	sbiw	r24, 0x01	; 1
	oled_wr_cmd(0x22);
	oled_wr_cmd(0);
	oled_wr_cmd(7);
	oled_wr_cmd(0x40);
	int temp;
	for(temp = 0; temp < 8*128; temp++){
 5c8:	00 97       	sbiw	r24, 0x00	; 0
 5ca:	e1 f7       	brne	.-8      	; 0x5c4 <oled_clear+0x36>
void oled_wr_cmd(uint8_t cmd){
	// write cmd to oled!! very important to add volatile
	/*volatile char * const addr = OLED_ADDR_CMD_START;
	*addr = cmd;*/
	volatile uint8_t *  addr = (uint8_t *)OLED_ADDR_CMD_START;
	*addr = cmd;
 5cc:	ef e0       	ldi	r30, 0x0F	; 15
 5ce:	f0 e1       	ldi	r31, 0x10	; 16
 5d0:	81 e2       	ldi	r24, 0x21	; 33
 5d2:	80 83       	st	Z, r24
 5d4:	10 82       	st	Z, r1
 5d6:	8f e7       	ldi	r24, 0x7F	; 127
 5d8:	80 83       	st	Z, r24
 5da:	82 e2       	ldi	r24, 0x22	; 34
 5dc:	80 83       	st	Z, r24
 5de:	10 82       	st	Z, r1
 5e0:	86 e0       	ldi	r24, 0x06	; 6
 5e2:	80 83       	st	Z, r24
 5e4:	8c e7       	ldi	r24, 0x7C	; 124
 5e6:	80 83       	st	Z, r24
 5e8:	8f ea       	ldi	r24, 0xAF	; 175
 5ea:	80 83       	st	Z, r24
	oled_wr_cmd(0x22);
	oled_wr_cmd(START_PAGE);
	oled_wr_cmd(END_PAGE);
	oled_wr_cmd(0x7c);
	oled_wr_cmd(0xaf); // on
	oled_goto_xy(0,0);
 5ec:	60 e0       	ldi	r22, 0x00	; 0
 5ee:	80 e0       	ldi	r24, 0x00	; 0
 5f0:	0e 94 63 02 	call	0x4c6	; 0x4c6 <oled_goto_xy>
 5f4:	08 95       	ret

000005f6 <oled_putchar_inverse>:

	oled_putchar(var);
	return 0;
}

void oled_putchar_inverse(char c){
 5f6:	cf 93       	push	r28
	if(c == '\n'){
 5f8:	8a 30       	cpi	r24, 0x0A	; 10
 5fa:	19 f4       	brne	.+6      	; 0x602 <oled_putchar_inverse+0xc>
		oled_goto_nextln();
 5fc:	0e 94 74 02 	call	0x4e8	; 0x4e8 <oled_goto_nextln>
		return;
 600:	2a c0       	rjmp	.+84     	; 0x656 <oled_putchar_inverse+0x60>
	}
	int i;
	const char j = (c-' ');
 602:	c0 ee       	ldi	r28, 0xE0	; 224
 604:	c8 0f       	add	r28, r24
	current_col_address+=CHA_WIDTH;
 606:	80 91 15 01 	lds	r24, 0x0115
 60a:	8b 5f       	subi	r24, 0xFB	; 251
 60c:	80 93 15 01 	sts	0x0115, r24

	if(current_col_address/CHA_WIDTH >= MAX_CHARS_A_LINE){
 610:	80 91 15 01 	lds	r24, 0x0115
 614:	8d 37       	cpi	r24, 0x7D	; 125
 616:	78 f0       	brcs	.+30     	; 0x636 <oled_putchar_inverse+0x40>
		//current_col_address = 0;
		oled_goto_nextln();
 618:	0e 94 74 02 	call	0x4e8	; 0x4e8 <oled_goto_nextln>
 61c:	0c c0       	rjmp	.+24     	; 0x636 <oled_putchar_inverse+0x40>
 61e:	fc 01       	movw	r30, r24
 620:	e2 0f       	add	r30, r18
 622:	f3 1f       	adc	r31, r19
	}


	for(i = 0; i < 5; i++){
		// pay attention, progmem read
		oled_wr_d(~(pgm_read_byte(&font[(int)j][i])));
 624:	e4 91       	lpm	r30, Z
 626:	e0 95       	com	r30
void oled_wr_d(uint8_t data){
	// write cmd to oled!! very important to add volatile
	/*volatile char * const addr = OLED_ADDR_DATA_START;
	*addr = data;*/
	volatile uint8_t * const addr = (uint8_t *)OLED_ADDR_DATA_START;
		*addr = data;
 628:	ec 93       	st	X, r30
		//current_col_address = 0;
		oled_goto_nextln();
	}


	for(i = 0; i < 5; i++){
 62a:	2f 5f       	subi	r18, 0xFF	; 255
 62c:	3f 4f       	sbci	r19, 0xFF	; 255
 62e:	25 30       	cpi	r18, 0x05	; 5
 630:	31 05       	cpc	r19, r1
 632:	a9 f7       	brne	.-22     	; 0x61e <oled_putchar_inverse+0x28>
 634:	10 c0       	rjmp	.+32     	; 0x656 <oled_putchar_inverse+0x60>
 636:	8c 2f       	mov	r24, r28
 638:	90 e0       	ldi	r25, 0x00	; 0
 63a:	9c 01       	movw	r18, r24
 63c:	22 0f       	add	r18, r18
 63e:	33 1f       	adc	r19, r19
 640:	22 0f       	add	r18, r18
 642:	33 1f       	adc	r19, r19
 644:	82 0f       	add	r24, r18
 646:	93 1f       	adc	r25, r19

	oled_putchar(var);
	return 0;
}

void oled_putchar_inverse(char c){
 648:	20 e0       	ldi	r18, 0x00	; 0
 64a:	30 e0       	ldi	r19, 0x00	; 0
 64c:	8c 52       	subi	r24, 0x2C	; 44
 64e:	9f 4f       	sbci	r25, 0xFF	; 255
void oled_wr_d(uint8_t data){
	// write cmd to oled!! very important to add volatile
	/*volatile char * const addr = OLED_ADDR_DATA_START;
	*addr = data;*/
	volatile uint8_t * const addr = (uint8_t *)OLED_ADDR_DATA_START;
		*addr = data;
 650:	af e0       	ldi	r26, 0x0F	; 15
 652:	b2 e1       	ldi	r27, 0x12	; 18
 654:	e4 cf       	rjmp	.-56     	; 0x61e <oled_putchar_inverse+0x28>

	for(i = 0; i < 5; i++){
		// pay attention, progmem read
		oled_wr_d(~(pgm_read_byte(&font[(int)j][i])));
	}
}
 656:	cf 91       	pop	r28
 658:	08 95       	ret

0000065a <oled_putstr_inverse>:

void oled_putstr( const char * str){
	while(*str)
		oled_putchar(*str++);
}
void oled_putstr_inverse( const char * str){
 65a:	cf 93       	push	r28
 65c:	df 93       	push	r29
 65e:	ec 01       	movw	r28, r24
	while(*str)
 660:	88 81       	ld	r24, Y
 662:	88 23       	and	r24, r24
 664:	31 f0       	breq	.+12     	; 0x672 <oled_putstr_inverse+0x18>
 666:	21 96       	adiw	r28, 0x01	; 1
		oled_putchar_inverse(*str++);
 668:	0e 94 fb 02 	call	0x5f6	; 0x5f6 <oled_putchar_inverse>
void oled_putstr( const char * str){
	while(*str)
		oled_putchar(*str++);
}
void oled_putstr_inverse( const char * str){
	while(*str)
 66c:	89 91       	ld	r24, Y+
 66e:	81 11       	cpse	r24, r1
 670:	fb cf       	rjmp	.-10     	; 0x668 <oled_putstr_inverse+0xe>
		oled_putchar_inverse(*str++);
}
 672:	df 91       	pop	r29
 674:	cf 91       	pop	r28
 676:	08 95       	ret

00000678 <oled_putstr_P_inverse>:
			str++;
			read = pgm_read_byte(str);
		}
		
}
void oled_putstr_P_inverse( const char * str){
 678:	cf 93       	push	r28
 67a:	df 93       	push	r29
 67c:	ec 01       	movw	r28, r24
	char read = pgm_read_byte(str);
 67e:	fc 01       	movw	r30, r24
 680:	84 91       	lpm	r24, Z
	// Display buffer on LCD.
	while(read){
 682:	88 23       	and	r24, r24
 684:	39 f0       	breq	.+14     	; 0x694 <oled_putstr_P_inverse+0x1c>
		oled_putchar_inverse(read);
 686:	0e 94 fb 02 	call	0x5f6	; 0x5f6 <oled_putchar_inverse>
		str++;
 68a:	21 96       	adiw	r28, 0x01	; 1
		read = pgm_read_byte(str);
 68c:	fe 01       	movw	r30, r28
 68e:	84 91       	lpm	r24, Z
		
}
void oled_putstr_P_inverse( const char * str){
	char read = pgm_read_byte(str);
	// Display buffer on LCD.
	while(read){
 690:	81 11       	cpse	r24, r1
 692:	f9 cf       	rjmp	.-14     	; 0x686 <oled_putstr_P_inverse+0xe>
		oled_putchar_inverse(read);
		str++;
		read = pgm_read_byte(str);
	}
	
}
 694:	df 91       	pop	r29
 696:	cf 91       	pop	r28
 698:	08 95       	ret

0000069a <_exit>:
 69a:	f8 94       	cli

0000069c <__stop_program>:
 69c:	ff cf       	rjmp	.-2      	; 0x69c <__stop_program>
